target datalayout = "e-m:e-p270:32:32-p271:32:32-p272:64:64-i64:64-i128:128-f80:128-n8:16:32:64-S128"
target triple = "x86_64-pc-linux-gnu"

%struct.cavs_vector = type { i16, i16, i16, i16 }
%struct.AVSContext = type { ptr, %struct.BlockDSPContext, %struct.H264ChromaContext, %struct.VideoDSPContext, %struct.CAVSDSPContext, %struct.GetBitContext, %struct.AVSFrame, [2 x %struct.AVSFrame], [2 x i32], i32, i32, i32, i32, i32, i32, i32, i32, i32, i32, i32, i32, i32, i32, i32, i32, i32, i32, i32, i32, i32, ptr, ptr, ptr, i32, ptr, [24 x %struct.cavs_vector], [2 x ptr], ptr, [9 x i32], ptr, i64, i64, [4 x i32], i32, i32, i32, i32, [64 x i8], ptr, ptr, ptr, [26 x i8], [10 x i8], [10 x i8], [26 x i8], i8, i8, i8, [8 x ptr], [7 x ptr], ptr, i32, [2 x i32], [2 x i32], ptr, i32, ptr }
%struct.BlockDSPContext = type { ptr, ptr, [2 x ptr] }
%struct.H264ChromaContext = type { [4 x ptr], [4 x ptr] }
%struct.VideoDSPContext = type { ptr, ptr }
%struct.CAVSDSPContext = type { [2 x [16 x ptr]], [2 x [16 x ptr]], ptr, ptr, ptr, ptr, ptr, i32 }
%struct.GetBitContext = type { ptr, ptr, i32, i32, i32 }
%struct.AVSFrame = type { ptr, i32 }
%struct.AVRational = type { i32, i32 }
%struct.AVChannelLayout = type { i32, i32, %union.anon, ptr }
%union.anon = type { i64 }
%struct.AVCodecContext = type { ptr, i32, i32, ptr, i32, i32, ptr, ptr, ptr, i64, i32, i32, ptr, i32, %struct.AVRational, %struct.AVRational, %struct.AVRational, i32, i32, i32, i32, i32, %struct.AVRational, i32, i32, i32, i32, i32, i32, i32, i32, i32, i32, i32, ptr, ptr, i32, float, float, float, float, float, float, float, float, float, i32, i32, i32, i32, i32, i32, i32, i32, i32, i32, i32, i32, ptr, ptr, ptr, i32, i32, i32, i32, i32, i32, i32, i32, i32, i32, %struct.AVChannelLayout, i32, i32, i32, i32, i32, i32, i32, i32, ptr, i32, i32, i32, float, float, i32, i32, i32, i32, i32, ptr, i64, i64, float, float, i32, i32, ptr, ptr, i32, i32, i32, i32, i32, ptr, ptr, ptr, ptr, i32, i32, [8 x i64], i32, i32, i32, i32, i32, i32, i32, ptr, ptr, i32, i32, i32, i32, i32, i32, i32, i32, i32, i32, ptr, ptr, i32, i32, ptr, ptr, ptr, ptr, i32, i32, i64, i32, i32, i64, ptr, i64, ptr, i32, ptr, i32 }

; Function Attrs: cold nounwind optsize uwtable
define i32 @ff_cavs_end(ptr noundef %0) #7 {
  %2 = alloca ptr, align 8
  %3 = alloca ptr, align 8
  store ptr %0, ptr %2, align 8, !tbaa !90
  call void @llvm.lifetime.start.p0(i64 8, ptr %3) #10
  %4 = load ptr, ptr %2, align 8, !tbaa !90
  %5 = getelementptr inbounds nuw %struct.AVCodecContext, ptr %4, i32 0, i32 6
  %6 = load ptr, ptr %5, align 8, !tbaa !91
  store ptr %6, ptr %3, align 8, !tbaa !4
  %7 = load ptr, ptr %3, align 8, !tbaa !4
  %8 = getelementptr inbounds nuw %struct.AVSContext, ptr %7, i32 0, i32 6
  %9 = getelementptr inbounds nuw %struct.AVSFrame, ptr %8, i32 0, i32 0
  call void @av_frame_free(ptr noundef %9)
  %10 = load ptr, ptr %3, align 8, !tbaa !4
  %11 = getelementptr inbounds nuw %struct.AVSContext, ptr %10, i32 0, i32 7
  %12 = getelementptr inbounds [2 x %struct.AVSFrame], ptr %11, i64 0, i64 0
  %13 = getelementptr inbounds nuw %struct.AVSFrame, ptr %12, i32 0, i32 0
  call void @av_frame_free(ptr noundef %13)
  %14 = load ptr, ptr %3, align 8, !tbaa !4
  %15 = getelementptr inbounds nuw %struct.AVSContext, ptr %14, i32 0, i32 7
  %16 = getelementptr inbounds [2 x %struct.AVSFrame], ptr %15, i64 0, i64 1
  %17 = getelementptr inbounds nuw %struct.AVSFrame, ptr %16, i32 0, i32 0
  call void @av_frame_free(ptr noundef %17)
  %18 = load ptr, ptr %3, align 8, !tbaa !4
  %19 = getelementptr inbounds nuw %struct.AVSContext, ptr %18, i32 0, i32 34
  call void @av_freep(ptr noundef %19)
  %20 = load ptr, ptr %3, align 8, !tbaa !4
  %21 = getelementptr inbounds nuw %struct.AVSContext, ptr %20, i32 0, i32 36
  %22 = getelementptr inbounds [2 x ptr], ptr %21, i64 0, i64 0
  call void @av_freep(ptr noundef %22)
  %23 = load ptr, ptr %3, align 8, !tbaa !4
  %24 = getelementptr inbounds nuw %struct.AVSContext, ptr %23, i32 0, i32 36
  %25 = getelementptr inbounds [2 x ptr], ptr %24, i64 0, i64 1
  call void @av_freep(ptr noundef %25)
  %26 = load ptr, ptr %3, align 8, !tbaa !4
  %27 = getelementptr inbounds nuw %struct.AVSContext, ptr %26, i32 0, i32 39
  call void @av_freep(ptr noundef %27)
  %28 = load ptr, ptr %3, align 8, !tbaa !4
  %29 = getelementptr inbounds nuw %struct.AVSContext, ptr %28, i32 0, i32 48
  call void @av_freep(ptr noundef %29)
  %30 = load ptr, ptr %3, align 8, !tbaa !4
  %31 = getelementptr inbounds nuw %struct.AVSContext, ptr %30, i32 0, i32 49
  call void @av_freep(ptr noundef %31)
  %32 = load ptr, ptr %3, align 8, !tbaa !4
  %33 = getelementptr inbounds nuw %struct.AVSContext, ptr %32, i32 0, i32 50
  call void @av_freep(ptr noundef %33)
  %34 = load ptr, ptr %3, align 8, !tbaa !4
  %35 = getelementptr inbounds nuw %struct.AVSContext, ptr %34, i32 0, i32 37
  call void @av_freep(ptr noundef %35)
  %36 = load ptr, ptr %3, align 8, !tbaa !4
  %37 = getelementptr inbounds nuw %struct.AVSContext, ptr %36, i32 0, i32 60
  call void @av_freep(ptr noundef %37)
  %38 = load ptr, ptr %3, align 8, !tbaa !4
  %39 = getelementptr inbounds nuw %struct.AVSContext, ptr %38, i32 0, i32 66
  call void @av_freep(ptr noundef %39)
  %40 = load ptr, ptr %3, align 8, !tbaa !4
  %41 = getelementptr inbounds nuw %struct.AVSContext, ptr %40, i32 0, i32 64
  call void @av_freep(ptr noundef %41)
  call void @llvm.lifetime.end.p0(i64 8, ptr %3) #10
  ret i32 0
}