; Function Attrs: cold nounwind optsize uwtable
define noundef i32 @ff_cavs_end(ptr noundef readonly captures(none) %0) local_unnamed_addr #8 {
  %2 = getelementptr inbounds nuw i8, ptr %0, i64 32
  %3 = load ptr, ptr %2, align 8, !tbaa !78
  %4 = getelementptr inbounds nuw i8, ptr %3, i64 712
  tail call void @av_frame_free(ptr noundef nonnull %4) #14
  %5 = getelementptr inbounds nuw i8, ptr %3, i64 728
  tail call void @av_frame_free(ptr noundef nonnull %5) #14
  %6 = getelementptr inbounds nuw i8, ptr %3, i64 744
  tail call void @av_frame_free(ptr noundef nonnull %6) #14
  %7 = getelementptr inbounds nuw i8, ptr %3, i64 888
  tail call void @av_freep(ptr noundef nonnull %7) #14
  %8 = getelementptr inbounds nuw i8, ptr %3, i64 1088
  tail call void @av_freep(ptr noundef nonnull %8) #14
  %9 = getelementptr inbounds nuw i8, ptr %3, i64 1096
  tail call void @av_freep(ptr noundef nonnull %9) #14
  %10 = getelementptr inbounds nuw i8, ptr %3, i64 1152
  tail call void @av_freep(ptr noundef nonnull %10) #14
  %11 = getelementptr inbounds nuw i8, ptr %3, i64 1272
  tail call void @av_freep(ptr noundef nonnull %11) #14
  %12 = getelementptr inbounds nuw i8, ptr %3, i64 1280
  tail call void @av_freep(ptr noundef nonnull %12) #14
  %13 = getelementptr inbounds nuw i8, ptr %3, i64 1288
  tail call void @av_freep(ptr noundef nonnull %13) #14
  %14 = getelementptr inbounds nuw i8, ptr %3, i64 1104
  tail call void @av_freep(ptr noundef nonnull %14) #14
  %15 = getelementptr inbounds nuw i8, ptr %3, i64 1496
  tail call void @av_freep(ptr noundef nonnull %15) #14
  %16 = getelementptr inbounds nuw i8, ptr %3, i64 1544
  tail call void @av_freep(ptr noundef nonnull %16) #14
  %17 = getelementptr inbounds nuw i8, ptr %3, i64 1528
  tail call void @av_freep(ptr noundef nonnull %17) #14
  ret i32 0
}